; Function Attrs: mustprogress nofree nounwind willreturn memory(write, argmem: readwrite) uwtable
define noundef zeroext i1 @_Z17CheckFallPositionP6CFaceON3vcg6Point3IfEEf(ptr nocapture noundef readonly %0, <2 x float> %1, float %2, float noundef %3) local_unnamed_addr #12 {
  %5 = fcmp ogt float %3, 1.000000e+00
  br i1 %5, label %25, label %6

6:                                                ; preds = %4
  %.sroa.5.0..sroa_idx = getelementptr inbounds i8, ptr %0, i64 44
  %.sroa.5.0.copyload = load float, ptr %.sroa.5.0..sroa_idx, align 4
  %7 = getelementptr inbounds i8, ptr %0, i64 36
  %.sroa.3.0..sroa_idx = getelementptr inbounds i8, ptr %0, i64 40
  %.sroa.3.0.copyload = load float, ptr %.sroa.3.0..sroa_idx, align 4
  %.sroa.0.0.copyload = load float, ptr %7, align 4
  %.sroa.09.0.vec.extract = extractelement <2 x float> %1, i64 0
  %.sroa.09.4.vec.extract = extractelement <2 x float> %1, i64 1
  %8 = fmul float %.sroa.09.4.vec.extract, %.sroa.3.0.copyload
  %9 = tail call float @llvm.fmuladd.f32(float %.sroa.0.0.copyload, float %.sroa.09.0.vec.extract, float %8)
  %10 = tail call noundef float @llvm.fmuladd.f32(float %.sroa.5.0.copyload, float %2, float %9)
  %11 = fmul float %.sroa.3.0.copyload, %.sroa.3.0.copyload
  %12 = tail call float @llvm.fmuladd.f32(float %.sroa.0.0.copyload, float %.sroa.0.0.copyload, float %11)
  %13 = tail call float @llvm.fmuladd.f32(float %.sroa.5.0.copyload, float %.sroa.5.0.copyload, float %12)
  %sqrt.i = tail call noundef float @llvm.sqrt.f32(float %13)
  %14 = fmul float %.sroa.09.4.vec.extract, %.sroa.09.4.vec.extract
  %15 = tail call float @llvm.fmuladd.f32(float %.sroa.09.0.vec.extract, float %.sroa.09.0.vec.extract, float %14)
  %16 = tail call float @llvm.fmuladd.f32(float %2, float %2, float %15)
  %sqrt.i5 = tail call noundef float @llvm.sqrt.f32(float %16)
  %17 = fmul float %sqrt.i5, %sqrt.i
  %18 = fdiv float %10, %17
  %19 = tail call noundef float @acosf(float noundef %18) #27
  %20 = fpext float %19 to double
  %21 = fsub float 1.000000e+00, %3
  %22 = fpext float %21 to double
  %23 = fmul double %22, 0x3FF921FB54442D18
  %24 = fcmp ogt double %23, %20
  br label %25

25:                                               ; preds = %6, %4
  %.0 = phi i1 [ false, %4 ], [ %24, %6 ]
  ret i1 %.0
}